; Function Attrs: nounwind uwtable
define ptr @l_Std_Time_Internal_Bounded_LE_addTop___rarg(ptr noundef %0, ptr noundef %1, ptr noundef readnone captures(none) %2) local_unnamed_addr #1 {
  %4 = ptrtoint ptr %0 to i64
  %5 = and i64 %4, 1
  %.not.i = icmp eq i64 %5, 0
  br i1 %.not.i, label %.critedge.i, label %6, !prof !10

6:                                                ; preds = %3
  %7 = ptrtoint ptr %1 to i64
  %8 = and i64 %7, 1
  %.not7.i = icmp eq i64 %8, 0
  br i1 %.not7.i, label %.critedge.i, label %9, !prof !10

9:                                                ; preds = %6
  %10 = shl i64 %4, 31
  %11 = ashr i64 %10, 32
  %12 = shl i64 %7, 31
  %13 = ashr i64 %12, 32
  %14 = add nsw i64 %13, %11
  %15 = add nsw i64 %14, 2147483648
  %16 = icmp ult i64 %15, 4294967296
  br i1 %16, label %17, label %22, !prof !9

17:                                               ; preds = %9
  %18 = shl nsw i64 %14, 1
  %19 = and i64 %18, 8589934590
  %20 = or disjoint i64 %19, 1
  %21 = inttoptr i64 %20 to ptr
  br label %lean_int_add.exit

22:                                               ; preds = %9
  %23 = tail call ptr @lean_big_int64_to_int(i64 noundef range(i64 -4611686016279904256, 4611686018427387905) %14) #5
  br label %lean_int_add.exit

.critedge.i:                                      ; preds = %6, %3
  %24 = tail call ptr @lean_int_big_add(ptr noundef %0, ptr noundef %1) #5
  br label %lean_int_add.exit

lean_int_add.exit:                                ; preds = %17, %22, %.critedge.i
  %.0.i = phi ptr [ %24, %.critedge.i ], [ %21, %17 ], [ %23, %22 ]
  ret ptr %.0.i
}